target datalayout = "e-m:e-p270:32:32-p271:32:32-p272:64:64-i64:64-i128:128-f80:128-n8:16:32:64-S128"
target triple = "x86_64-pc-linux-gnu"

%"class.gmx::ArrayRef.8" = type { %"struct.gmx::ArrayRefIter.9", %"struct.gmx::ArrayRefIter.9" }
%"struct.gmx::ArrayRefIter.9" = type { ptr }
%"class.gmx::ArrayRef.11" = type { %"struct.gmx::ArrayRefIter.12", %"struct.gmx::ArrayRefIter.12" }
%"struct.gmx::ArrayRefIter.12" = type { ptr }
%class.anon = type { double }

@stderr = external global ptr, align 8
@.str.59 = private unnamed_addr constant [18 x i8] c"Empty histogram!\0A\00", align 1

; Function Attrs: mustprogress nounwind uwtable
define linkonce_odr noundef i64 @_ZNK3gmx12ArrayRefIterIKiEmiES2_(ptr noundef nonnull align 8 dereferenceable(8) %0, ptr %1) #4 comdat align 2 {
  %3 = alloca %"struct.gmx::ArrayRefIter.9", align 8
  %4 = alloca ptr, align 8
  %5 = getelementptr inbounds nuw %"struct.gmx::ArrayRefIter.9", ptr %3, i32 0, i32 0
  store ptr %1, ptr %5, align 8
  store ptr %0, ptr %4, align 8, !tbaa !169
  %6 = load ptr, ptr %4, align 8
  %7 = getelementptr inbounds nuw %"struct.gmx::ArrayRefIter.9", ptr %6, i32 0, i32 0
  %8 = load ptr, ptr %7, align 8, !tbaa !171
  %9 = getelementptr inbounds nuw %"struct.gmx::ArrayRefIter.9", ptr %3, i32 0, i32 0
  %10 = load ptr, ptr %9, align 8, !tbaa !171
  %11 = ptrtoint ptr %8 to i64
  %12 = ptrtoint ptr %10 to i64
  %13 = sub i64 %11, %12
  %14 = sdiv exact i64 %13, 4
  ret i64 %14
}

; Function Attrs: mustprogress nounwind uwtable
define linkonce_odr noundef nonnull align 8 dereferenceable(8) ptr @_ZN3gmx12ArrayRefIterIfEpLEl(ptr noundef nonnull align 8 dereferenceable(8) %0, i64 noundef %1) #4 comdat align 2 {
  %3 = alloca ptr, align 8
  %4 = alloca i64, align 8
  store ptr %0, ptr %3, align 8, !tbaa !178
  store i64 %1, ptr %4, align 8, !tbaa !32
  %5 = load ptr, ptr %3, align 8
  %6 = load i64, ptr %4, align 8, !tbaa !32
  %7 = getelementptr inbounds nuw %"struct.gmx::ArrayRefIter.12", ptr %5, i32 0, i32 0
  %8 = load ptr, ptr %7, align 8, !tbaa !180
  %9 = getelementptr inbounds float, ptr %8, i64 %6
  store ptr %9, ptr %7, align 8, !tbaa !180
  ret ptr %5
}

; Function Attrs: mustprogress nounwind uwtable
define linkonce_odr noundef nonnull align 8 dereferenceable(8) ptr @_ZN3gmx5boost14stl_interfaces2v118iterator_interfaceINS_12ArrayRefIterIfEESt26random_access_iterator_tagfRfPflvE7derivedEv(ptr noundef nonnull align 1 dereferenceable(1) %0) #4 comdat align 2 {
  %2 = alloca ptr, align 8
  store ptr %0, ptr %2, align 8, !tbaa !182
  %3 = load ptr, ptr %2, align 8
  ret ptr %3
}

; Function Attrs: mustprogress nounwind uwtable
define linkonce_odr noundef i64 @_ZN3gmx5boost14stl_interfaces6detail11common_diffINS_12ArrayRefIterIKiEES6_EEDTmiscNSt11conditionalIXsr3std14is_convertibleIT_T0_EE5valueES9_S8_E4typeEfp_scSB_fp0_ES8_S9_(ptr %0, ptr %1) #4 comdat {
  %3 = alloca %"struct.gmx::ArrayRefIter.9", align 8
  %4 = alloca %"struct.gmx::ArrayRefIter.9", align 8
  %5 = alloca %"struct.gmx::ArrayRefIter.9", align 8
  %6 = alloca %"struct.gmx::ArrayRefIter.9", align 8
  %7 = getelementptr inbounds nuw %"struct.gmx::ArrayRefIter.9", ptr %3, i32 0, i32 0
  store ptr %0, ptr %7, align 8
  %8 = getelementptr inbounds nuw %"struct.gmx::ArrayRefIter.9", ptr %4, i32 0, i32 0
  store ptr %1, ptr %8, align 8
  call void @llvm.lifetime.start.p0(i64 8, ptr %5) #17
  call void @llvm.memcpy.p0.p0.i64(ptr align 8 %5, ptr align 8 %3, i64 8, i1 false)
  call void @llvm.memcpy.p0.p0.i64(ptr align 8 %6, ptr align 8 %4, i64 8, i1 false)
  %9 = getelementptr inbounds nuw %"struct.gmx::ArrayRefIter.9", ptr %6, i32 0, i32 0
  %10 = load ptr, ptr %9, align 8
  %11 = call noundef i64 @_ZNK3gmx12ArrayRefIterIKiEmiES2_(ptr noundef nonnull align 8 dereferenceable(8) %5, ptr %10) #17
  call void @llvm.lifetime.end.p0(i64 8, ptr %5) #17
  ret i64 %11
}

; Function Attrs: mustprogress nounwind uwtable
define linkonce_odr noundef nonnull align 8 dereferenceable(8) ptr @_ZN3gmx5boost14stl_interfaces2v118iterator_interfaceINS_12ArrayRefIterIfEESt26random_access_iterator_tagfRfPflvEppIS5_EEDTcmpLclsr3stdE7declvalIRT_EEcvlLi1Eclsr3stdE7declvalISC_EEEv(ptr noundef nonnull align 1 dereferenceable(1) %0) #4 comdat align 2 {
  %2 = alloca ptr, align 8
  store ptr %0, ptr %2, align 8, !tbaa !182
  %3 = load ptr, ptr %2, align 8
  %4 = call noundef nonnull align 8 dereferenceable(8) ptr @_ZN3gmx5boost14stl_interfaces2v118iterator_interfaceINS_12ArrayRefIterIfEESt26random_access_iterator_tagfRfPflvE7derivedEv(ptr noundef nonnull align 1 dereferenceable(1) %3) #17
  %5 = call noundef nonnull align 8 dereferenceable(8) ptr @_ZN3gmx12ArrayRefIterIfEpLEl(ptr noundef nonnull align 8 dereferenceable(8) %4, i64 noundef 1) #17
  %6 = call noundef nonnull align 8 dereferenceable(8) ptr @_ZN3gmx5boost14stl_interfaces2v118iterator_interfaceINS_12ArrayRefIterIfEESt26random_access_iterator_tagfRfPflvE7derivedEv(ptr noundef nonnull align 1 dereferenceable(1) %3) #17
  ret ptr %6
}

; Function Attrs: mustprogress nounwind uwtable
define linkonce_odr noundef nonnull align 4 dereferenceable(4) ptr @_ZNK3gmx12ArrayRefIterIfEdeEv(ptr noundef nonnull align 8 dereferenceable(8) %0) #4 comdat align 2 {
  %2 = alloca ptr, align 8
  store ptr %0, ptr %2, align 8, !tbaa !178
  %3 = load ptr, ptr %2, align 8
  %4 = getelementptr inbounds nuw %"struct.gmx::ArrayRefIter.12", ptr %3, i32 0, i32 0
  %5 = load ptr, ptr %4, align 8, !tbaa !180
  ret ptr %5
}

; Function Attrs: inlinehint mustprogress nounwind uwtable
define internal noundef double @"_ZZ15normalize_histoN3gmx8ArrayRefIKiEEfNS0_IfEEENK3$_0clEi"(ptr noundef nonnull align 8 dereferenceable(8) %0, i32 noundef %1) #10 align 2 {
  %3 = alloca ptr, align 8
  %4 = alloca i32, align 4
  store ptr %0, ptr %3, align 8, !tbaa !93
  store i32 %1, ptr %4, align 4, !tbaa !11
  %5 = load ptr, ptr %3, align 8
  %6 = getelementptr inbounds nuw %class.anon, ptr %5, i32 0, i32 0
  %7 = load double, ptr %6, align 8, !tbaa !167
  %8 = load i32, ptr %4, align 4, !tbaa !11
  %9 = sitofp i32 %8 to double
  %10 = fmul double %7, %9
  ret double %10
}

; Function Attrs: mustprogress nounwind uwtable
define linkonce_odr noundef nonnull align 8 dereferenceable(8) ptr @_ZN3gmx12ArrayRefIterIKiEpLEl(ptr noundef nonnull align 8 dereferenceable(8) %0, i64 noundef %1) #4 comdat align 2 {
  %3 = alloca ptr, align 8
  %4 = alloca i64, align 8
  store ptr %0, ptr %3, align 8, !tbaa !169
  store i64 %1, ptr %4, align 8, !tbaa !32
  %5 = load ptr, ptr %3, align 8
  %6 = load i64, ptr %4, align 8, !tbaa !32
  %7 = getelementptr inbounds nuw %"struct.gmx::ArrayRefIter.9", ptr %5, i32 0, i32 0
  %8 = load ptr, ptr %7, align 8, !tbaa !171
  %9 = getelementptr inbounds i32, ptr %8, i64 %6
  store ptr %9, ptr %7, align 8, !tbaa !171
  ret ptr %5
}

; Function Attrs: mustprogress nounwind uwtable
define linkonce_odr noundef nonnull align 8 dereferenceable(8) ptr @_ZN3gmx5boost14stl_interfaces2v118iterator_interfaceINS_12ArrayRefIterIKiEESt26random_access_iterator_tagS5_RS5_PS5_lvE7derivedEv(ptr noundef nonnull align 1 dereferenceable(1) %0) #4 comdat align 2 {
  %2 = alloca ptr, align 8
  store ptr %0, ptr %2, align 8, !tbaa !173
  %3 = load ptr, ptr %2, align 8
  ret ptr %3
}

; Function Attrs: mustprogress nounwind uwtable
define linkonce_odr noundef zeroext i1 @_ZN3gmx5boost14stl_interfaces2v1eqINS_12ArrayRefIterIKiEES6_vEEDTcmclsr6v1_dtlE16derived_iteratorfp_Eeqclsr6detailE11common_difffp_fp0_ELi0EET_T0_(ptr %0, ptr %1) #4 comdat {
  %3 = alloca %"struct.gmx::ArrayRefIter.9", align 8
  %4 = alloca %"struct.gmx::ArrayRefIter.9", align 8
  %5 = alloca %"struct.gmx::ArrayRefIter.9", align 8
  %6 = alloca %"struct.gmx::ArrayRefIter.9", align 8
  %7 = getelementptr inbounds nuw %"struct.gmx::ArrayRefIter.9", ptr %3, i32 0, i32 0
  store ptr %0, ptr %7, align 8
  %8 = getelementptr inbounds nuw %"struct.gmx::ArrayRefIter.9", ptr %4, i32 0, i32 0
  store ptr %1, ptr %8, align 8
  call void @llvm.memcpy.p0.p0.i64(ptr align 8 %5, ptr align 8 %3, i64 8, i1 false)
  call void @llvm.memcpy.p0.p0.i64(ptr align 8 %6, ptr align 8 %4, i64 8, i1 false)
  %9 = getelementptr inbounds nuw %"struct.gmx::ArrayRefIter.9", ptr %5, i32 0, i32 0
  %10 = load ptr, ptr %9, align 8
  %11 = getelementptr inbounds nuw %"struct.gmx::ArrayRefIter.9", ptr %6, i32 0, i32 0
  %12 = load ptr, ptr %11, align 8
  %13 = call noundef i64 @_ZN3gmx5boost14stl_interfaces6detail11common_diffINS_12ArrayRefIterIKiEES6_EEDTmiscNSt11conditionalIXsr3std14is_convertibleIT_T0_EE5valueES9_S8_E4typeEfp_scSB_fp0_ES8_S9_(ptr %10, ptr %12) #17
  %14 = icmp eq i64 %13, 0
  ret i1 %14
}

; Function Attrs: mustprogress uwtable
define internal ptr @"_ZSt9transformIN3gmx12ArrayRefIterIKiEENS1_IfEEZ15normalize_histoNS0_8ArrayRefIS2_EEfNS5_IfEEE3$_0ET0_T_SA_S9_T1_"(ptr %0, ptr %1, ptr %2, double %3) #0 {
  %5 = alloca %"struct.gmx::ArrayRefIter.12", align 8
  %6 = alloca %"struct.gmx::ArrayRefIter.9", align 8
  %7 = alloca %"struct.gmx::ArrayRefIter.9", align 8
  %8 = alloca %"struct.gmx::ArrayRefIter.12", align 8
  %9 = alloca %class.anon, align 8
  %10 = alloca %"struct.gmx::ArrayRefIter.9", align 8
  %11 = alloca %"struct.gmx::ArrayRefIter.9", align 8
  %12 = getelementptr inbounds nuw %"struct.gmx::ArrayRefIter.9", ptr %6, i32 0, i32 0
  store ptr %0, ptr %12, align 8
  %13 = getelementptr inbounds nuw %"struct.gmx::ArrayRefIter.9", ptr %7, i32 0, i32 0
  store ptr %1, ptr %13, align 8
  %14 = getelementptr inbounds nuw %"struct.gmx::ArrayRefIter.12", ptr %8, i32 0, i32 0
  store ptr %2, ptr %14, align 8
  %15 = getelementptr inbounds nuw %class.anon, ptr %9, i32 0, i32 0
  store double %3, ptr %15, align 8
  br label %16

16:                                               ; preds = %28, %4
  call void @llvm.memcpy.p0.p0.i64(ptr align 8 %10, ptr align 8 %6, i64 8, i1 false)
  call void @llvm.memcpy.p0.p0.i64(ptr align 8 %11, ptr align 8 %7, i64 8, i1 false)
  %17 = getelementptr inbounds nuw %"struct.gmx::ArrayRefIter.9", ptr %10, i32 0, i32 0
  %18 = load ptr, ptr %17, align 8
  %19 = getelementptr inbounds nuw %"struct.gmx::ArrayRefIter.9", ptr %11, i32 0, i32 0
  %20 = load ptr, ptr %19, align 8
  %21 = call noundef zeroext i1 @_ZN3gmx5boost14stl_interfaces2v1neINS_12ArrayRefIterIKiEES6_EEDTcmclsr6v1_dtlE16derived_iteratorfp_Enteqfp_fp0_ET_T0_(ptr %18, ptr %20) #17
  br i1 %21, label %22, label %31

22:                                               ; preds = %16
  %23 = call noundef nonnull align 4 dereferenceable(4) ptr @_ZNK3gmx12ArrayRefIterIKiEdeEv(ptr noundef nonnull align 8 dereferenceable(8) %6) #17
  %24 = load i32, ptr %23, align 4, !tbaa !11
  %25 = call noundef double @"_ZZ15normalize_histoN3gmx8ArrayRefIKiEEfNS0_IfEEENK3$_0clEi"(ptr noundef nonnull align 8 dereferenceable(8) %9, i32 noundef %24)
  %26 = fptrunc double %25 to float
  %27 = call noundef nonnull align 4 dereferenceable(4) ptr @_ZNK3gmx12ArrayRefIterIfEdeEv(ptr noundef nonnull align 8 dereferenceable(8) %8) #17
  store float %26, ptr %27, align 4, !tbaa !17
  br label %28

28:                                               ; preds = %22
  %29 = call noundef nonnull align 8 dereferenceable(8) ptr @_ZN3gmx5boost14stl_interfaces2v118iterator_interfaceINS_12ArrayRefIterIKiEESt26random_access_iterator_tagS5_RS5_PS5_lvEppIS6_EEDTcmpLclsr3stdE7declvalIRT_EEcvlLi1Eclsr3stdE7declvalISD_EEEv(ptr noundef nonnull align 1 dereferenceable(1) %6) #17
  %30 = call noundef nonnull align 8 dereferenceable(8) ptr @_ZN3gmx5boost14stl_interfaces2v118iterator_interfaceINS_12ArrayRefIterIfEESt26random_access_iterator_tagfRfPflvEppIS5_EEDTcmpLclsr3stdE7declvalIRT_EEcvlLi1Eclsr3stdE7declvalISC_EEEv(ptr noundef nonnull align 1 dereferenceable(1) %8) #17
  br label %16, !llvm.loop !175

31:                                               ; preds = %16
  call void @llvm.memcpy.p0.p0.i64(ptr align 8 %5, ptr align 8 %8, i64 8, i1 false)
  %32 = getelementptr inbounds nuw %"struct.gmx::ArrayRefIter.12", ptr %5, i32 0, i32 0
  %33 = load ptr, ptr %32, align 8
  ret ptr %33
}

; Function Attrs: mustprogress nounwind uwtable
define linkonce_odr ptr @_ZNK3gmx8ArrayRefIfE5beginEv(ptr noundef nonnull align 8 dereferenceable(16) %0) #4 comdat align 2 {
  %2 = alloca %"struct.gmx::ArrayRefIter.12", align 8
  %3 = alloca ptr, align 8
  store ptr %0, ptr %3, align 8, !tbaa !176
  %4 = load ptr, ptr %3, align 8
  %5 = getelementptr inbounds nuw %"class.gmx::ArrayRef.11", ptr %4, i32 0, i32 0
  call void @llvm.memcpy.p0.p0.i64(ptr align 8 %2, ptr align 8 %5, i64 8, i1 false)
  %6 = getelementptr inbounds nuw %"struct.gmx::ArrayRefIter.12", ptr %2, i32 0, i32 0
  %7 = load ptr, ptr %6, align 8
  ret ptr %7
}

; Function Attrs: mustprogress nounwind uwtable
define linkonce_odr noundef nonnull align 8 dereferenceable(8) ptr @_ZN3gmx5boost14stl_interfaces2v118iterator_interfaceINS_12ArrayRefIterIKiEESt26random_access_iterator_tagS5_RS5_PS5_lvEppIS6_EEDTcmpLclsr3stdE7declvalIRT_EEcvlLi1Eclsr3stdE7declvalISD_EEEv(ptr noundef nonnull align 1 dereferenceable(1) %0) #4 comdat align 2 {
  %2 = alloca ptr, align 8
  store ptr %0, ptr %2, align 8, !tbaa !173
  %3 = load ptr, ptr %2, align 8
  %4 = call noundef nonnull align 8 dereferenceable(8) ptr @_ZN3gmx5boost14stl_interfaces2v118iterator_interfaceINS_12ArrayRefIterIKiEESt26random_access_iterator_tagS5_RS5_PS5_lvE7derivedEv(ptr noundef nonnull align 1 dereferenceable(1) %3) #17
  %5 = call noundef nonnull align 8 dereferenceable(8) ptr @_ZN3gmx12ArrayRefIterIKiEpLEl(ptr noundef nonnull align 8 dereferenceable(8) %4, i64 noundef 1) #17
  %6 = call noundef nonnull align 8 dereferenceable(8) ptr @_ZN3gmx5boost14stl_interfaces2v118iterator_interfaceINS_12ArrayRefIterIKiEESt26random_access_iterator_tagS5_RS5_PS5_lvE7derivedEv(ptr noundef nonnull align 1 dereferenceable(1) %3) #17
  ret ptr %6
}

; Function Attrs: mustprogress nounwind uwtable
define linkonce_odr noundef nonnull align 4 dereferenceable(4) ptr @_ZNK3gmx12ArrayRefIterIKiEdeEv(ptr noundef nonnull align 8 dereferenceable(8) %0) #4 comdat align 2 {
  %2 = alloca ptr, align 8
  store ptr %0, ptr %2, align 8, !tbaa !169
  %3 = load ptr, ptr %2, align 8
  %4 = getelementptr inbounds nuw %"struct.gmx::ArrayRefIter.9", ptr %3, i32 0, i32 0
  %5 = load ptr, ptr %4, align 8, !tbaa !171
  ret ptr %5
}

; Function Attrs: mustprogress nounwind uwtable
define linkonce_odr noundef zeroext i1 @_ZN3gmx5boost14stl_interfaces2v1neINS_12ArrayRefIterIKiEES6_EEDTcmclsr6v1_dtlE16derived_iteratorfp_Enteqfp_fp0_ET_T0_(ptr %0, ptr %1) #4 comdat {
  %3 = alloca %"struct.gmx::ArrayRefIter.9", align 8
  %4 = alloca %"struct.gmx::ArrayRefIter.9", align 8
  %5 = alloca %"struct.gmx::ArrayRefIter.9", align 8
  %6 = alloca %"struct.gmx::ArrayRefIter.9", align 8
  %7 = getelementptr inbounds nuw %"struct.gmx::ArrayRefIter.9", ptr %3, i32 0, i32 0
  store ptr %0, ptr %7, align 8
  %8 = getelementptr inbounds nuw %"struct.gmx::ArrayRefIter.9", ptr %4, i32 0, i32 0
  store ptr %1, ptr %8, align 8
  call void @llvm.memcpy.p0.p0.i64(ptr align 8 %5, ptr align 8 %3, i64 8, i1 false)
  call void @llvm.memcpy.p0.p0.i64(ptr align 8 %6, ptr align 8 %4, i64 8, i1 false)
  %9 = getelementptr inbounds nuw %"struct.gmx::ArrayRefIter.9", ptr %5, i32 0, i32 0
  %10 = load ptr, ptr %9, align 8
  %11 = getelementptr inbounds nuw %"struct.gmx::ArrayRefIter.9", ptr %6, i32 0, i32 0
  %12 = load ptr, ptr %11, align 8
  %13 = call noundef zeroext i1 @_ZN3gmx5boost14stl_interfaces2v1eqINS_12ArrayRefIterIKiEES6_vEEDTcmclsr6v1_dtlE16derived_iteratorfp_Eeqclsr6detailE11common_difffp_fp0_ELi0EET_T0_(ptr %10, ptr %12) #17
  %14 = xor i1 %13, true
  ret i1 %14
}

; Function Attrs: mustprogress nounwind uwtable
define linkonce_odr ptr @_ZNK3gmx8ArrayRefIKiE3endEv(ptr noundef nonnull align 8 dereferenceable(16) %0) #4 comdat align 2 {
  %2 = alloca %"struct.gmx::ArrayRefIter.9", align 8
  %3 = alloca ptr, align 8
  store ptr %0, ptr %3, align 8, !tbaa !165
  %4 = load ptr, ptr %3, align 8
  %5 = getelementptr inbounds nuw %"class.gmx::ArrayRef.8", ptr %4, i32 0, i32 1
  call void @llvm.memcpy.p0.p0.i64(ptr align 8 %2, ptr align 8 %5, i64 8, i1 false)
  %6 = getelementptr inbounds nuw %"struct.gmx::ArrayRefIter.9", ptr %2, i32 0, i32 0
  %7 = load ptr, ptr %6, align 8
  ret ptr %7
}

; Function Attrs: mustprogress nounwind uwtable
define linkonce_odr ptr @_ZNK3gmx8ArrayRefIKiE5beginEv(ptr noundef nonnull align 8 dereferenceable(16) %0) #4 comdat align 2 {
  %2 = alloca %"struct.gmx::ArrayRefIter.9", align 8
  %3 = alloca ptr, align 8
  store ptr %0, ptr %3, align 8, !tbaa !165
  %4 = load ptr, ptr %3, align 8
  %5 = getelementptr inbounds nuw %"class.gmx::ArrayRef.8", ptr %4, i32 0, i32 0
  call void @llvm.memcpy.p0.p0.i64(ptr align 8 %2, ptr align 8 %5, i64 8, i1 false)
  %6 = getelementptr inbounds nuw %"struct.gmx::ArrayRefIter.9", ptr %2, i32 0, i32 0
  %7 = load ptr, ptr %6, align 8
  ret ptr %7
}

; Function Attrs: mustprogress uwtable
define void @_Z15normalize_histoN3gmx8ArrayRefIKiEEfNS0_IfEE(ptr %0, ptr %1, float noundef %2, ptr %3, ptr %4) #0 {
  %6 = alloca %"class.gmx::ArrayRef.8", align 8
  %7 = alloca %"class.gmx::ArrayRef.11", align 8
  %8 = alloca float, align 4
  %9 = alloca double, align 8
  %10 = alloca ptr, align 8
  %11 = alloca %"struct.gmx::ArrayRefIter.9", align 8
  %12 = alloca %"struct.gmx::ArrayRefIter.9", align 8
  %13 = alloca %"struct.gmx::ArrayRefIter.9", align 8
  %14 = alloca %"struct.gmx::ArrayRefIter.9", align 8
  %15 = alloca ptr, align 8
  %16 = alloca i32, align 4
  %17 = alloca double, align 8
  %18 = alloca %"struct.gmx::ArrayRefIter.9", align 8
  %19 = alloca %"struct.gmx::ArrayRefIter.9", align 8
  %20 = alloca %"struct.gmx::ArrayRefIter.12", align 8
  %21 = alloca %class.anon, align 8
  %22 = alloca %"struct.gmx::ArrayRefIter.12", align 8
  %23 = getelementptr inbounds nuw { ptr, ptr }, ptr %6, i32 0, i32 0
  store ptr %0, ptr %23, align 8
  %24 = getelementptr inbounds nuw { ptr, ptr }, ptr %6, i32 0, i32 1
  store ptr %1, ptr %24, align 8
  %25 = getelementptr inbounds nuw { ptr, ptr }, ptr %7, i32 0, i32 0
  store ptr %3, ptr %25, align 8
  %26 = getelementptr inbounds nuw { ptr, ptr }, ptr %7, i32 0, i32 1
  store ptr %4, ptr %26, align 8
  store float %2, ptr %8, align 4, !tbaa !17
  call void @llvm.lifetime.start.p0(i64 8, ptr %9) #17
  store double 0.000000e+00, ptr %9, align 8, !tbaa !150
  call void @llvm.lifetime.start.p0(i64 8, ptr %10) #17
  store ptr %6, ptr %10, align 8, !tbaa !165
  call void @llvm.lifetime.start.p0(i64 8, ptr %11) #17
  %27 = load ptr, ptr %10, align 8, !tbaa !165
  %28 = call ptr @_ZNK3gmx8ArrayRefIKiE5beginEv(ptr noundef nonnull align 8 dereferenceable(16) %27)
  %29 = getelementptr inbounds nuw %"struct.gmx::ArrayRefIter.9", ptr %11, i32 0, i32 0
  store ptr %28, ptr %29, align 8
  call void @llvm.lifetime.start.p0(i64 8, ptr %12) #17
  %30 = load ptr, ptr %10, align 8, !tbaa !165
  %31 = call ptr @_ZNK3gmx8ArrayRefIKiE3endEv(ptr noundef nonnull align 8 dereferenceable(16) %30)
  %32 = getelementptr inbounds nuw %"struct.gmx::ArrayRefIter.9", ptr %12, i32 0, i32 0
  store ptr %31, ptr %32, align 8
  br label %33

33:                                               ; preds = %50, %5
  call void @llvm.memcpy.p0.p0.i64(ptr align 8 %13, ptr align 8 %11, i64 8, i1 false)
  call void @llvm.memcpy.p0.p0.i64(ptr align 8 %14, ptr align 8 %12, i64 8, i1 false)
  %34 = getelementptr inbounds nuw %"struct.gmx::ArrayRefIter.9", ptr %13, i32 0, i32 0
  %35 = load ptr, ptr %34, align 8
  %36 = getelementptr inbounds nuw %"struct.gmx::ArrayRefIter.9", ptr %14, i32 0, i32 0
  %37 = load ptr, ptr %36, align 8
  %38 = call noundef zeroext i1 @_ZN3gmx5boost14stl_interfaces2v1neINS_12ArrayRefIterIKiEES6_EEDTcmclsr6v1_dtlE16derived_iteratorfp_Enteqfp_fp0_ET_T0_(ptr %35, ptr %37) #17
  br i1 %38, label %40, label %39

39:                                               ; preds = %33
  call void @llvm.lifetime.end.p0(i64 8, ptr %12) #17
  call void @llvm.lifetime.end.p0(i64 8, ptr %11) #17
  call void @llvm.lifetime.end.p0(i64 8, ptr %10) #17
  br label %52

40:                                               ; preds = %33
  call void @llvm.lifetime.start.p0(i64 8, ptr %15) #17
  %41 = call noundef nonnull align 4 dereferenceable(4) ptr @_ZNK3gmx12ArrayRefIterIKiEdeEv(ptr noundef nonnull align 8 dereferenceable(8) %11) #17
  store ptr %41, ptr %15, align 8, !tbaa !80
  %42 = load float, ptr %8, align 4, !tbaa !17
  %43 = load ptr, ptr %15, align 8, !tbaa !80
  %44 = load i32, ptr %43, align 4, !tbaa !11
  %45 = sitofp i32 %44 to float
  %46 = fmul float %42, %45
  %47 = fpext float %46 to double
  %48 = load double, ptr %9, align 8, !tbaa !150
  %49 = fadd double %48, %47
  store double %49, ptr %9, align 8, !tbaa !150
  call void @llvm.lifetime.end.p0(i64 8, ptr %15) #17
  br label %50

50:                                               ; preds = %40
  %51 = call noundef nonnull align 8 dereferenceable(8) ptr @_ZN3gmx5boost14stl_interfaces2v118iterator_interfaceINS_12ArrayRefIterIKiEESt26random_access_iterator_tagS5_RS5_PS5_lvEppIS6_EEDTcmpLclsr3stdE7declvalIRT_EEcvlLi1Eclsr3stdE7declvalISD_EEEv(ptr noundef nonnull align 1 dereferenceable(1) %11) #17
  br label %33

52:                                               ; preds = %39
  %53 = load double, ptr %9, align 8, !tbaa !150
  %54 = fcmp oeq double %53, 0.000000e+00
  br i1 %54, label %55, label %58

55:                                               ; preds = %52
  %56 = load ptr, ptr @stderr, align 8, !tbaa !15
  %57 = call i32 (ptr, ptr, ...) @fprintf(ptr noundef %56, ptr noundef @.str.59) #17
  store i32 1, ptr %16, align 4
  br label %79

58:                                               ; preds = %52
  call void @llvm.lifetime.start.p0(i64 8, ptr %17) #17
  %59 = load double, ptr %9, align 8, !tbaa !150
  %60 = fdiv double 1.000000e+00, %59
  store double %60, ptr %17, align 8, !tbaa !150
  %61 = call ptr @_ZNK3gmx8ArrayRefIKiE5beginEv(ptr noundef nonnull align 8 dereferenceable(16) %6)
  %62 = getelementptr inbounds nuw %"struct.gmx::ArrayRefIter.9", ptr %18, i32 0, i32 0
  store ptr %61, ptr %62, align 8
  %63 = call ptr @_ZNK3gmx8ArrayRefIKiE3endEv(ptr noundef nonnull align 8 dereferenceable(16) %6)
  %64 = getelementptr inbounds nuw %"struct.gmx::ArrayRefIter.9", ptr %19, i32 0, i32 0
  store ptr %63, ptr %64, align 8
  %65 = call ptr @_ZNK3gmx8ArrayRefIfE5beginEv(ptr noundef nonnull align 8 dereferenceable(16) %7)
  %66 = getelementptr inbounds nuw %"struct.gmx::ArrayRefIter.12", ptr %20, i32 0, i32 0
  store ptr %65, ptr %66, align 8
  %67 = getelementptr inbounds nuw %class.anon, ptr %21, i32 0, i32 0
  %68 = load double, ptr %17, align 8, !tbaa !150
  store double %68, ptr %67, align 8, !tbaa !167
  %69 = getelementptr inbounds nuw %"struct.gmx::ArrayRefIter.9", ptr %18, i32 0, i32 0
  %70 = load ptr, ptr %69, align 8
  %71 = getelementptr inbounds nuw %"struct.gmx::ArrayRefIter.9", ptr %19, i32 0, i32 0
  %72 = load ptr, ptr %71, align 8
  %73 = getelementptr inbounds nuw %"struct.gmx::ArrayRefIter.12", ptr %20, i32 0, i32 0
  %74 = load ptr, ptr %73, align 8
  %75 = getelementptr inbounds nuw %class.anon, ptr %21, i32 0, i32 0
  %76 = load double, ptr %75, align 8
  %77 = call ptr @"_ZSt9transformIN3gmx12ArrayRefIterIKiEENS1_IfEEZ15normalize_histoNS0_8ArrayRefIS2_EEfNS5_IfEEE3$_0ET0_T_SA_S9_T1_"(ptr %70, ptr %72, ptr %74, double %76)
  %78 = getelementptr inbounds nuw %"struct.gmx::ArrayRefIter.12", ptr %22, i32 0, i32 0
  store ptr %77, ptr %78, align 8
  call void @llvm.lifetime.end.p0(i64 8, ptr %17) #17
  store i32 0, ptr %16, align 4
  br label %79

79:                                               ; preds = %58, %55
  call void @llvm.lifetime.end.p0(i64 8, ptr %9) #17
  %80 = load i32, ptr %16, align 4
  switch i32 %80, label %82 [
    i32 0, label %81
    i32 1, label %81
  ]

81:                                               ; preds = %79, %79
  ret void

82:                                               ; preds = %79
  unreachable
}