; Function Attrs: mustprogress nofree nounwind uwtable
define void @_Z15normalize_histoN3gmx8ArrayRefIKiEEfNS0_IfEE(ptr readonly %0, ptr readnone %1, float noundef %2, ptr writeonly captures(none) %3, ptr readnone captures(none) %4) local_unnamed_addr #19 {
  %.not22 = icmp eq ptr %0, %1
  br i1 %.not22, label %._crit_edge.thread, label %.lr.ph

._crit_edge:                                      ; preds = %.lr.ph
  %6 = fcmp oeq double %11, 0.000000e+00
  br i1 %6, label %._crit_edge.thread, label %.lr.ph.i.preheader

.lr.ph:                                           ; preds = %5, %.lr.ph
  %.024 = phi double [ %11, %.lr.ph ], [ 0.000000e+00, %5 ]
  %.sroa.0.023 = phi ptr [ %12, %.lr.ph ], [ %0, %5 ]
  %7 = load i32, ptr %.sroa.0.023, align 4, !tbaa !30
  %8 = sitofp i32 %7 to float
  %9 = fmul float %2, %8
  %10 = fpext float %9 to double
  %11 = fadd double %.024, %10
  %12 = getelementptr inbounds nuw i8, ptr %.sroa.0.023, i64 4
  %.not = icmp eq ptr %12, %1
  br i1 %.not, label %._crit_edge, label %.lr.ph

._crit_edge.thread:                               ; preds = %5, %._crit_edge
  %13 = load ptr, ptr @stderr, align 8, !tbaa !4
  %14 = tail call i64 @fwrite(ptr nonnull @.str.59, i64 17, i64 1, ptr %13) #30
  br label %"_ZSt9transformIN3gmx12ArrayRefIterIKiEENS1_IfEEZ15normalize_histoNS0_8ArrayRefIS2_EEfNS5_IfEEE3$_0ET0_T_SA_S9_T1_.exit"

.lr.ph.i.preheader:                               ; preds = %._crit_edge
  %15 = fdiv double 1.000000e+00, %11
  br label %.lr.ph.i

.lr.ph.i:                                         ; preds = %.lr.ph.i.preheader, %.lr.ph.i
  %.sroa.06.010.i = phi ptr [ %20, %.lr.ph.i ], [ %0, %.lr.ph.i.preheader ]
  %.sroa.04.09.i = phi ptr [ %21, %.lr.ph.i ], [ %3, %.lr.ph.i.preheader ]
  %16 = load i32, ptr %.sroa.06.010.i, align 4, !tbaa !30
  %17 = sitofp i32 %16 to double
  %18 = fmul double %15, %17
  %19 = fptrunc double %18 to float
  store float %19, ptr %.sroa.04.09.i, align 4, !tbaa !20
  %20 = getelementptr inbounds nuw i8, ptr %.sroa.06.010.i, i64 4
  %21 = getelementptr inbounds nuw i8, ptr %.sroa.04.09.i, i64 4
  %.not.i = icmp eq ptr %20, %1
  br i1 %.not.i, label %"_ZSt9transformIN3gmx12ArrayRefIterIKiEENS1_IfEEZ15normalize_histoNS0_8ArrayRefIS2_EEfNS5_IfEEE3$_0ET0_T_SA_S9_T1_.exit", label %.lr.ph.i, !llvm.loop !77

"_ZSt9transformIN3gmx12ArrayRefIterIKiEENS1_IfEEZ15normalize_histoNS0_8ArrayRefIS2_EEfNS5_IfEEE3$_0ET0_T_SA_S9_T1_.exit": ; preds = %.lr.ph.i, %._crit_edge.thread
  ret void
}